Certificate:
    Data:
        Version: 3 (0x2)
        Serial Number: 1 (0x1)
    Signature Algorithm: sha256WithRSAEncryption
        Issuer: CN=devcert
        Validity
            Not Before: May  2 23:31:07 2020 GMT
            Not After : Aug  5 23:31:07 2022 GMT
        Subject: CN=localhost
        Subject Public Key Info:
            Public Key Algorithm: rsaEncryption
                Public-Key: (2048 bit)
                Modulus:
                    00:b6:f3:84:47:d7:5e:c9:2f:94:e5:18:52:a1:23:
                    57:0d:00:22:37:cc:49:91:b1:4d:96:da:ec:fa:38:
                    79:f7:d1:3c:ef:f0:81:a1:df:a8:b5:d7:d8:2f:a5:
                    da:b0:d2:5e:a1:60:16:eb:f2:0e:1b:a8:12:c9:7b:
                    89:64:88:98:d9:d0:07:eb:61:34:b0:9b:77:02:9b:
                    ea:79:e2:f0:dc:fc:d2:e9:db:25:3f:c2:ea:70:5e:
                    91:60:df:d6:cd:28:4d:b3:62:1d:20:b0:21:9f:bf:
                    25:41:fd:80:5e:03:ee:4f:ae:36:c3:53:88:15:35:
                    62:ce:23:2b:c9:e9:5e:f0:79:7d:41:cd:c4:28:dc:
                    66:fe:a7:85:88:73:f4:8d:8a:a6:45:00:2a:12:b9:
                    0f:d0:6a:a5:55:51:0a:6e:f7:f0:a5:41:d2:6a:bb:
                    d7:4e:6b:7d:24:d9:3e:26:89:33:60:d3:44:53:de:
                    10:61:a6:fd:c9:c9:1b:03:d5:05:30:39:e1:3e:ca:
                    14:ea:b0:31:99:bc:81:87:4a:81:31:a7:5b:89:2c:
                    6e:9d:1b:65:d1:a9:66:0d:f5:8b:cb:f7:d1:29:72:
                    9c:c8:0b:6d:23:1e:ca:ef:78:93:35:2c:5f:dd:e5:
                    3c:6d:92:1c:01:f2:a3:02:23:74:10:81:a0:33:6b:
                    73:01
                Exponent: 65537 (0x10001)
        X509v3 extensions:
            X509v3 Basic Constraints: critical
                CA:FALSE
            X509v3 Subject Key Identifier: 
                CE:8D:8F:04:09:40:49:2A:B0:2E:DA:C0:54:24:87:AE:97:B6:B6:98
            X509v3 Authority Key Identifier: 
                keyid:19:8E:7A:E3:7E:E1:1A:5D:CF:DD:05:2E:07:77:A1:7B:A8:13:E7:EB
                DirName:/CN=devcert
                serial:F4:C5:81:0A:0A:60:06:CF

            X509v3 Key Usage: critical
                Digital Signature, Key Encipherment
            X509v3 Extended Key Usage: 
                TLS Web Server Authentication
            X509v3 Subject Alternative Name: 
                DNS:localhost, DNS:*.localhost
    Signature Algorithm: sha256WithRSAEncryption
         15:66:33:d5:0a:bb:d2:25:52:3c:31:6e:0f:9b:45:a9:6d:f7:
         6d:29:87:90:37:c1:71:64:09:1c:f2:15:ce:76:fa:ae:62:1e:
         ab:a6:65:fe:73:07:55:cb:77:4b:aa:00:95:6e:95:62:8a:07:
         d4:84:8e:f2:98:11:39:36:b7:aa:fb:86:8d:55:30:b1:dd:80:
         4d:f8:94:31:e3:d3:1a:53:c6:68:eb:a6:f2:ae:ac:93:3f:a1:
         fe:51:72:5b:25:51:6c:5c:cc:55:04:ac:38:85:73:ce:bc:98:
         11:79:1c:12:8a:77:c5:04:e9:df:a6:52:01:83:6b:7d:19:1b:
         e5:c0:4a:62:a4:fe:f8:03:28:25:e9:3a:e5:e3:60:45:7e:97:
         2f:17:40:b1:70:8f:1c:b6:be:57:4b:e2:8e:59:1e:ff:bf:d5:
         11:ab:c4:33:ed:d7:f2:6c:45:dc:34:f2:29:21:0d:4f:71:10:
         d9:2a:eb:54:6d:94:51:99:c7:a3:76:c2:b5:12:c6:b3:87:e2:
         ca:10:79:05:e4:90:37:08:e1:c7:44:eb:a3:64:e1:7d:56:52:
         98:cc:6b:c0:68:f7:58:50:16:12:7a:4a:d6:19:22:dd:a4:2f:
         4e:69:55:bf:27:cf:03:82:18:6e:c4:cf:ed:74:2f:08:00:4a:
         78:7d:65:fe
-----BEGIN CERTIFICATE-----
MIIDXjCCAkagAwIBAgIBATANBgkqhkiG9w0BAQsFADASMRAwDgYDVQQDDAdkZXZj
ZXJ0MB4XDTIwMDUwMjIzMzEwN1oXDTIyMDgwNTIzMzEwN1owFDESMBAGA1UEAwwJ
bG9jYWxob3N0MIIBIjANBgkqhkiG9w0BAQEFAAOCAQ8AMIIBCgKCAQEAtvOER9de
yS+U5RhSoSNXDQAiN8xJkbFNltrs+jh599E87/CBod+otdfYL6XasNJeoWAW6/IO
G6gSyXuJZIiY2dAH62E0sJt3ApvqeeLw3PzS6dslP8LqcF6RYN/WzShNs2IdILAh
n78lQf2AXgPuT642w1OIFTViziMryele8Hl9Qc3EKNxm/qeFiHP0jYqmRQAqErkP
0GqlVVEKbvfwpUHSarvXTmt9JNk+JokzYNNEU94QYab9yckbA9UFMDnhPsoU6rAx
mbyBh0qBMadbiSxunRtl0almDfWLy/fRKXKcyAttIx7K73iTNSxf3eU8bZIcAfKj
AiN0EIGgM2tzAQIDAQABo4G8MIG5MAwGA1UdEwEB/wQCMAAwHQYDVR0OBBYEFM6N
jwQJQEkqsC7awFQkh66XtraYMEIGA1UdIwQ7MDmAFBmOeuN+4Rpdz90FLgd3oXuo
E+froRakFDASMRAwDgYDVQQDDAdkZXZjZXJ0ggkA9MWBCgpgBs8wDgYDVR0PAQH/
BAQDAgWgMBMGA1UdJQQMMAoGCCsGAQUFBwMBMCEGA1UdEQQaMBiCCWxvY2FsaG9z
dIILKi5sb2NhbGhvc3QwDQYJKoZIhvcNAQELBQADggEBABVmM9UKu9IlUjwxbg+b
Ralt920ph5A3wXFkCRzyFc52+q5iHqumZf5zB1XLd0uqAJVulWKKB9SEjvKYETk2
t6r7ho1VMLHdgE34lDHj0xpTxmjrpvKurJM/of5RclslUWxczFUErDiFc868mBF5
HBKKd8UE6d+mUgGDa30ZG+XASmKk/vgDKCXpOuXjYEV+ly8XQLFwjxy2vldL4o5Z
Hv+/1RGrxDPt1/JsRdw08ikhDU9xENkq61RtlFGZx6N2wrUSxrOH4soQeQXkkDcI
4cdE66Nk4X1WUpjMa8Bo91hQFhJ6StYZIt2kL05pVb8nzwOCGG7Ez+10LwgASnh9
Zf4=
-----END CERTIFICATE-----
